; Function Attrs: mustprogress uwtable
define noundef i32 @_ZN7Imf_3_210Compressor12compressTileEPKciN9Imath_3_23BoxINS3_4Vec2IiEEEERS2_(ptr noundef nonnull align 8 dereferenceable(16) %this, ptr noundef %inPtr, i32 noundef %inSize, ptr nocapture noundef readonly %range, ptr noundef nonnull align 8 dereferenceable(8) %outPtr) unnamed_addr #7 align 2 {
entry:
  %y = getelementptr inbounds i8, ptr %range, i64 4
  %0 = load i32, ptr %y, align 4
  %vtable = load ptr, ptr %this, align 8
  %vfn = getelementptr inbounds i8, ptr %vtable, i64 32
  %1 = load ptr, ptr %vfn, align 8
  %call = tail call noundef i32 %1(ptr noundef nonnull align 8 dereferenceable(16) %this, ptr noundef %inPtr, i32 noundef %inSize, i32 noundef %0, ptr noundef nonnull align 8 dereferenceable(8) %outPtr)
  ret i32 %call
}